target datalayout = "e-m:e-p270:32:32-p271:32:32-p272:64:64-i64:64-i128:128-f80:128-n8:16:32:64-S128"
target triple = "x86_64-pc-linux-gnu"

%struct.H5HF_hdr_t = type { %struct.H5C_cache_entry_t, i32, i32, i8, i8, i8, i8, %struct.H5HF_dtable_t, i64, i64, i32, i64, i64, %struct.H5O_pline_t, i64, i32, i64, i64, i64, i64, i64, i64, i64, i64, i64, i64, i64, i32, ptr, i64, i8, i8, i8, ptr, i32, ptr, %struct.H5HF_block_iter_t, ptr, i64, i8, i8, i64, i8, i8, i8, i8 }
%struct.H5C_cache_entry_t = type { ptr, i64, i64, ptr, i8, ptr, i8, i8, i8, i8, i32, i8, i8, i8, i8, i8, i32, ptr, i32, i32, i32, i32, i32, i8, i8, ptr, ptr, ptr, ptr, ptr, ptr, i8, i32, i8, i64, ptr, i64, i64, i32, i8, i32, i32, i8, ptr, ptr, ptr }
%struct.H5HF_dtable_t = type { %struct.H5HF_dtable_cparam_t, i64, i32, i32, i32, i32, i32, i32, i32, i64, ptr, ptr, ptr, ptr }
%struct.H5HF_dtable_cparam_t = type { i32, i64, i64, i32, i32 }
%struct.H5O_pline_t = type { %struct.H5O_shared_t, i32, i64, i64, ptr }
%struct.H5O_shared_t = type { i32, ptr, i32, %union.anon }
%union.anon = type { %struct.H5O_mesg_loc_t }
%struct.H5O_mesg_loc_t = type { i32, i64 }
%struct.H5HF_block_iter_t = type { i8, ptr }
%struct.H5HF_indirect_t = type { %struct.H5C_cache_entry_t, i64, ptr, ptr, ptr, i32, i64, i64, i32, i32, i32, i32, ptr, i8, i64, ptr, ptr }
%struct.H5HF_indirect_ent_t = type { i64 }

@H5HF_init_g = external global i8, align 1
@H5_libterm_g = external global i8, align 1
@.str.4 = private unnamed_addr constant [103 x i8] c"generated/home/dtcxzyw/WorkSpace/Projects/compilers/llvm-opt-benchmark/bench/hdf5/hdf5/src/H5HFcache.c\00", align 1
@H5E_HEAP_g = external global i64, align 8
@H5E_NOSPACE_g = external global i64, align 8
@__func__.H5HF__cache_iblock_pre_serialize = private unnamed_addr constant [33 x i8] c"H5HF__cache_iblock_pre_serialize\00", align 1
@.str.28 = private unnamed_addr constant [55 x i8] c"file allocation failed for fractal heap indirect block\00", align 1
@H5E_CANTMOVE_g = external global i64, align 8
@.str.29 = private unnamed_addr constant [30 x i8] c"unable to move indirect block\00", align 1
@H5E_CANTDIRTY_g = external global i64, align 8
@.str.30 = private unnamed_addr constant [32 x i8] c"can't mark heap header as dirty\00", align 1

; Function Attrs: nounwind uwtable
define internal i32 @H5HF__cache_iblock_pre_serialize(ptr noundef %0, ptr noundef %1, i64 noundef %2, i64 noundef %3, ptr noundef %4, ptr noundef %5, ptr noundef %6) #0 {
  %8 = alloca i32, align 4
  %9 = alloca ptr, align 8
  %10 = alloca ptr, align 8
  %11 = alloca i64, align 8
  %12 = alloca i64, align 8
  %13 = alloca ptr, align 8
  %14 = alloca ptr, align 8
  %15 = alloca ptr, align 8
  %16 = alloca ptr, align 8
  %17 = alloca ptr, align 8
  %18 = alloca i32, align 4
  %19 = alloca i8, align 1
  %20 = alloca i64, align 8
  %21 = alloca ptr, align 8
  %22 = alloca i32, align 4
  %23 = alloca i32, align 4
  store ptr %0, ptr %9, align 8, !tbaa !80
  store ptr %1, ptr %10, align 8, !tbaa !3
  store i64 %2, ptr %11, align 8, !tbaa !40
  store i64 %3, ptr %12, align 8, !tbaa !40
  store ptr %4, ptr %13, align 8, !tbaa !7
  store ptr %5, ptr %14, align 8, !tbaa !7
  store ptr %6, ptr %15, align 8, !tbaa !81
  call void @llvm.lifetime.start.p0(i64 8, ptr %16) #8
  call void @llvm.lifetime.start.p0(i64 8, ptr %17) #8
  %24 = load ptr, ptr %10, align 8, !tbaa !3
  store ptr %24, ptr %17, align 8, !tbaa !119
  call void @llvm.lifetime.start.p0(i64 4, ptr %18) #8
  store i32 0, ptr %18, align 4, !tbaa !43
  call void @llvm.lifetime.start.p0(i64 1, ptr %19) #8
  store i8 0, ptr %19, align 1, !tbaa !11
  %25 = load i8, ptr @H5HF_init_g, align 1, !tbaa !11, !range !13, !noundef !14
  %26 = trunc i8 %25 to i1
  br i1 %26, label %31, label %27

27:                                               ; preds = %7
  %28 = load i8, ptr @H5_libterm_g, align 1, !tbaa !11, !range !13, !noundef !14
  %29 = trunc i8 %28 to i1
  %30 = xor i1 %29, true
  br label %31

31:                                               ; preds = %27, %7
  %32 = phi i1 [ true, %7 ], [ %30, %27 ]
  %33 = xor i1 %32, true
  %34 = xor i1 %33, true
  %35 = zext i1 %34 to i32
  %36 = sext i32 %35 to i64
  %37 = call i64 @llvm.expect.i64(i64 %36, i64 1)
  %38 = icmp ne i64 %37, 0
  br i1 %38, label %39, label %187

39:                                               ; preds = %31
  %40 = load ptr, ptr %17, align 8, !tbaa !119
  %41 = getelementptr inbounds nuw %struct.H5HF_indirect_t, ptr %40, i32 0, i32 2
  %42 = load ptr, ptr %41, align 8, !tbaa !121
  store ptr %42, ptr %16, align 8, !tbaa !47
  %43 = load ptr, ptr %9, align 8, !tbaa !80
  %44 = load i64, ptr %11, align 8, !tbaa !40
  %45 = call zeroext i1 @H5F_is_tmp_addr(ptr noundef %43, i64 noundef %44)
  br i1 %45, label %46, label %183

46:                                               ; preds = %39
  call void @llvm.lifetime.start.p0(i64 8, ptr %20) #8
  %47 = load ptr, ptr %9, align 8, !tbaa !80
  %48 = load ptr, ptr %17, align 8, !tbaa !119
  %49 = getelementptr inbounds nuw %struct.H5HF_indirect_t, ptr %48, i32 0, i32 7
  %50 = load i64, ptr %49, align 8, !tbaa !129
  %51 = call i64 @H5MF_alloc(ptr noundef %47, i32 noundef 6, i64 noundef %50)
  store i64 %51, ptr %20, align 8, !tbaa !40
  %52 = icmp eq i64 -1, %51
  br i1 %52, label %53, label %72

53:                                               ; preds = %46
  br label %54

54:                                               ; preds = %53
  br label %55

55:                                               ; preds = %54
  br label %56

56:                                               ; preds = %55
  %57 = load i64, ptr @H5E_HEAP_g, align 8, !tbaa !40
  %58 = load i64, ptr @H5E_NOSPACE_g, align 8, !tbaa !40
  %59 = call i32 (ptr, ptr, i32, i64, i64, ptr, ...) @H5E_printf_stack(ptr noundef @.str.4, ptr noundef @__func__.H5HF__cache_iblock_pre_serialize, i32 noundef 1184, i64 noundef %57, i64 noundef %58, ptr noundef @.str.28)
  br label %60

60:                                               ; preds = %56
  br label %61

61:                                               ; preds = %60
  store i8 1, ptr %19, align 1, !tbaa !11
  %62 = load i8, ptr %19, align 1, !tbaa !11, !range !13, !noundef !14
  %63 = trunc i8 %62 to i1
  %64 = zext i1 %63 to i8
  store i8 %64, ptr %19, align 1, !tbaa !11
  br label %65

65:                                               ; preds = %61
  br label %66

66:                                               ; preds = %65
  br label %67

67:                                               ; preds = %66
  store i32 -1, ptr %18, align 4, !tbaa !43
  store i32 10, ptr %23, align 4
  br label %180

68:                                               ; No predecessors!
  br label %69

69:                                               ; preds = %68
  br label %70

70:                                               ; preds = %69
  br label %71

71:                                               ; preds = %70
  br label %72

72:                                               ; preds = %71, %46
  %73 = load ptr, ptr %9, align 8, !tbaa !80
  %74 = load ptr, ptr %17, align 8, !tbaa !119
  %75 = getelementptr inbounds nuw %struct.H5HF_indirect_t, ptr %74, i32 0, i32 6
  %76 = load i64, ptr %75, align 8, !tbaa !151
  %77 = load i64, ptr %20, align 8, !tbaa !40
  %78 = call i32 @H5AC_move_entry(ptr noundef %73, ptr noundef @H5AC_FHEAP_IBLOCK, i64 noundef %76, i64 noundef %77)
  %79 = icmp slt i32 %78, 0
  br i1 %79, label %80, label %99

80:                                               ; preds = %72
  br label %81

81:                                               ; preds = %80
  br label %82

82:                                               ; preds = %81
  br label %83

83:                                               ; preds = %82
  %84 = load i64, ptr @H5E_HEAP_g, align 8, !tbaa !40
  %85 = load i64, ptr @H5E_CANTMOVE_g, align 8, !tbaa !40
  %86 = call i32 (ptr, ptr, i32, i64, i64, ptr, ...) @H5E_printf_stack(ptr noundef @.str.4, ptr noundef @__func__.H5HF__cache_iblock_pre_serialize, i32 noundef 1191, i64 noundef %84, i64 noundef %85, ptr noundef @.str.29)
  br label %87

87:                                               ; preds = %83
  br label %88

88:                                               ; preds = %87
  store i8 1, ptr %19, align 1, !tbaa !11
  %89 = load i8, ptr %19, align 1, !tbaa !11, !range !13, !noundef !14
  %90 = trunc i8 %89 to i1
  %91 = zext i1 %90 to i8
  store i8 %91, ptr %19, align 1, !tbaa !11
  br label %92

92:                                               ; preds = %88
  br label %93

93:                                               ; preds = %92
  br label %94

94:                                               ; preds = %93
  store i32 -1, ptr %18, align 4, !tbaa !43
  store i32 10, ptr %23, align 4
  br label %180

95:                                               ; No predecessors!
  br label %96

96:                                               ; preds = %95
  br label %97

97:                                               ; preds = %96
  br label %98

98:                                               ; preds = %97
  br label %99

99:                                               ; preds = %98, %72
  %100 = load i64, ptr %20, align 8, !tbaa !40
  %101 = load ptr, ptr %17, align 8, !tbaa !119
  %102 = getelementptr inbounds nuw %struct.H5HF_indirect_t, ptr %101, i32 0, i32 6
  store i64 %100, ptr %102, align 8, !tbaa !151
  %103 = load ptr, ptr %17, align 8, !tbaa !119
  %104 = getelementptr inbounds nuw %struct.H5HF_indirect_t, ptr %103, i32 0, i32 3
  %105 = load ptr, ptr %104, align 8, !tbaa !132
  %106 = icmp eq ptr null, %105
  br i1 %106, label %107, label %135

107:                                              ; preds = %99
  %108 = load i64, ptr %20, align 8, !tbaa !40
  %109 = load ptr, ptr %16, align 8, !tbaa !47
  %110 = getelementptr inbounds nuw %struct.H5HF_hdr_t, ptr %109, i32 0, i32 7
  %111 = getelementptr inbounds nuw %struct.H5HF_dtable_t, ptr %110, i32 0, i32 1
  store i64 %108, ptr %111, align 8, !tbaa !152
  %112 = load ptr, ptr %16, align 8, !tbaa !47
  %113 = call i32 @H5HF__hdr_dirty(ptr noundef %112)
  %114 = icmp slt i32 %113, 0
  br i1 %114, label %115, label %134

115:                                              ; preds = %107
  br label %116

116:                                              ; preds = %115
  br label %117

117:                                              ; preds = %116
  br label %118

118:                                              ; preds = %117
  %119 = load i64, ptr @H5E_HEAP_g, align 8, !tbaa !40
  %120 = load i64, ptr @H5E_CANTDIRTY_g, align 8, !tbaa !40
  %121 = call i32 (ptr, ptr, i32, i64, i64, ptr, ...) @H5E_printf_stack(ptr noundef @.str.4, ptr noundef @__func__.H5HF__cache_iblock_pre_serialize, i32 noundef 1203, i64 noundef %119, i64 noundef %120, ptr noundef @.str.30)
  br label %122

122:                                              ; preds = %118
  br label %123

123:                                              ; preds = %122
  store i8 1, ptr %19, align 1, !tbaa !11
  %124 = load i8, ptr %19, align 1, !tbaa !11, !range !13, !noundef !14
  %125 = trunc i8 %124 to i1
  %126 = zext i1 %125 to i8
  store i8 %126, ptr %19, align 1, !tbaa !11
  br label %127

127:                                              ; preds = %123
  br label %128

128:                                              ; preds = %127
  br label %129

129:                                              ; preds = %128
  store i32 -1, ptr %18, align 4, !tbaa !43
  store i32 10, ptr %23, align 4
  br label %180

130:                                              ; No predecessors!
  br label %131

131:                                              ; preds = %130
  br label %132

132:                                              ; preds = %131
  br label %133

133:                                              ; preds = %132
  br label %134

134:                                              ; preds = %133, %107
  br label %176

135:                                              ; preds = %99
  call void @llvm.lifetime.start.p0(i64 8, ptr %21) #8
  call void @llvm.lifetime.start.p0(i64 4, ptr %22) #8
  %136 = load ptr, ptr %17, align 8, !tbaa !119
  %137 = getelementptr inbounds nuw %struct.H5HF_indirect_t, ptr %136, i32 0, i32 3
  %138 = load ptr, ptr %137, align 8, !tbaa !132
  store ptr %138, ptr %21, align 8, !tbaa !119
  %139 = load ptr, ptr %17, align 8, !tbaa !119
  %140 = getelementptr inbounds nuw %struct.H5HF_indirect_t, ptr %139, i32 0, i32 5
  %141 = load i32, ptr %140, align 8, !tbaa !135
  store i32 %141, ptr %22, align 4, !tbaa !43
  %142 = load i64, ptr %20, align 8, !tbaa !40
  %143 = load ptr, ptr %21, align 8, !tbaa !119
  %144 = getelementptr inbounds nuw %struct.H5HF_indirect_t, ptr %143, i32 0, i32 15
  %145 = load ptr, ptr %144, align 8, !tbaa !140
  %146 = load i32, ptr %22, align 4, !tbaa !43
  %147 = zext i32 %146 to i64
  %148 = getelementptr inbounds nuw %struct.H5HF_indirect_ent_t, ptr %145, i64 %147
  %149 = getelementptr inbounds nuw %struct.H5HF_indirect_ent_t, ptr %148, i32 0, i32 0
  store i64 %142, ptr %149, align 8, !tbaa !146
  %150 = load ptr, ptr %21, align 8, !tbaa !119
  %151 = call i32 @H5HF__iblock_dirty(ptr noundef %150)
  %152 = icmp slt i32 %151, 0
  br i1 %152, label %153, label %172

153:                                              ; preds = %135
  br label %154

154:                                              ; preds = %153
  br label %155

155:                                              ; preds = %154
  br label %156

156:                                              ; preds = %155
  %157 = load i64, ptr @H5E_HEAP_g, align 8, !tbaa !40
  %158 = load i64, ptr @H5E_CANTDIRTY_g, align 8, !tbaa !40
  %159 = call i32 (ptr, ptr, i32, i64, i64, ptr, ...) @H5E_printf_stack(ptr noundef @.str.4, ptr noundef @__func__.H5HF__cache_iblock_pre_serialize, i32 noundef 1218, i64 noundef %157, i64 noundef %158, ptr noundef @.str.30)
  br label %160

160:                                              ; preds = %156
  br label %161

161:                                              ; preds = %160
  store i8 1, ptr %19, align 1, !tbaa !11
  %162 = load i8, ptr %19, align 1, !tbaa !11, !range !13, !noundef !14
  %163 = trunc i8 %162 to i1
  %164 = zext i1 %163 to i8
  store i8 %164, ptr %19, align 1, !tbaa !11
  br label %165

165:                                              ; preds = %161
  br label %166

166:                                              ; preds = %165
  br label %167

167:                                              ; preds = %166
  store i32 -1, ptr %18, align 4, !tbaa !43
  store i32 10, ptr %23, align 4
  br label %173

168:                                              ; No predecessors!
  br label %169

169:                                              ; preds = %168
  br label %170

170:                                              ; preds = %169
  br label %171

171:                                              ; preds = %170
  br label %172

172:                                              ; preds = %171, %135
  store i32 0, ptr %23, align 4
  br label %173

173:                                              ; preds = %167, %172
  call void @llvm.lifetime.end.p0(i64 4, ptr %22) #8
  call void @llvm.lifetime.end.p0(i64 8, ptr %21) #8
  %174 = load i32, ptr %23, align 4
  switch i32 %174, label %180 [
    i32 0, label %175
  ]

175:                                              ; preds = %173
  br label %176

176:                                              ; preds = %175, %134
  %177 = load i64, ptr %20, align 8, !tbaa !40
  %178 = load ptr, ptr %13, align 8, !tbaa !7
  store i64 %177, ptr %178, align 8, !tbaa !40
  %179 = load ptr, ptr %15, align 8, !tbaa !81
  store i32 2, ptr %179, align 4, !tbaa !43
  store i32 0, ptr %23, align 4
  br label %180

180:                                              ; preds = %129, %94, %67, %176, %173
  call void @llvm.lifetime.end.p0(i64 8, ptr %20) #8
  %181 = load i32, ptr %23, align 4
  switch i32 %181, label %189 [
    i32 0, label %182
    i32 10, label %186
  ]

182:                                              ; preds = %180
  br label %185

183:                                              ; preds = %39
  %184 = load ptr, ptr %15, align 8, !tbaa !81
  store i32 0, ptr %184, align 4, !tbaa !43
  br label %185

185:                                              ; preds = %183, %182
  br label %186

186:                                              ; preds = %185, %180
  br label %187

187:                                              ; preds = %186, %31
  %188 = load i32, ptr %18, align 4, !tbaa !43
  store i32 %188, ptr %8, align 4
  store i32 1, ptr %23, align 4
  br label %189

189:                                              ; preds = %187, %180
  call void @llvm.lifetime.end.p0(i64 1, ptr %19) #8
  call void @llvm.lifetime.end.p0(i64 4, ptr %18) #8
  call void @llvm.lifetime.end.p0(i64 8, ptr %17) #8
  call void @llvm.lifetime.end.p0(i64 8, ptr %16) #8
  %190 = load i32, ptr %8, align 4
  ret i32 %190
}