; Function Attrs: nounwind uwtable
define internal noundef range(i32 -1, 1) i32 @H5HF__cache_iblock_pre_serialize(ptr noundef %0, ptr noundef captures(none) %1, i64 noundef %2, i64 %3, ptr noundef writeonly captures(none) %4, ptr readnone captures(none) %5, ptr noundef writeonly captures(none) %6) #0 {
  %8 = load i8, ptr @H5HF_init_g, align 1, !tbaa !3, !range !7, !noundef !8
  %9 = trunc nuw i8 %8 to i1
  %10 = load i8, ptr @H5_libterm_g, align 1, !range !7
  %11 = trunc nuw i8 %10 to i1
  %12 = xor i1 %11, true
  %13 = select i1 %9, i1 true, i1 %12
  br i1 %13, label %14, label %62, !prof !9

14:                                               ; preds = %7
  %15 = getelementptr inbounds nuw i8, ptr %1, i64 256
  %16 = load ptr, ptr %15, align 8, !tbaa !108
  %17 = tail call zeroext i1 @H5F_is_tmp_addr(ptr noundef %0, i64 noundef %2) #9
  br i1 %17, label %18, label %61

18:                                               ; preds = %14
  %19 = getelementptr inbounds nuw i8, ptr %1, i64 296
  %20 = load i64, ptr %19, align 8, !tbaa !116
  %21 = tail call i64 @H5MF_alloc(ptr noundef %0, i32 noundef 6, i64 noundef %20) #9
  %22 = icmp eq i64 %21, -1
  br i1 %22, label %23, label %27

23:                                               ; preds = %18
  %24 = load i64, ptr @H5E_HEAP_g, align 8, !tbaa !14
  %25 = load i64, ptr @H5E_NOSPACE_g, align 8, !tbaa !14
  %26 = tail call i32 (ptr, ptr, i32, i64, i64, ptr, ...) @H5E_printf_stack(ptr noundef nonnull @.str.4, ptr noundef nonnull @__func__.H5HF__cache_iblock_pre_serialize, i32 noundef 1184, i64 noundef %24, i64 noundef %25, ptr noundef nonnull @.str.28) #9
  br label %62

27:                                               ; preds = %18
  %28 = getelementptr inbounds nuw i8, ptr %1, i64 288
  %29 = load i64, ptr %28, align 8, !tbaa !138
  %30 = tail call i32 @H5AC_move_entry(ptr noundef %0, ptr noundef nonnull @H5AC_FHEAP_IBLOCK, i64 noundef %29, i64 noundef %21) #9
  %31 = icmp slt i32 %30, 0
  br i1 %31, label %32, label %36

32:                                               ; preds = %27
  %33 = load i64, ptr @H5E_HEAP_g, align 8, !tbaa !14
  %34 = load i64, ptr @H5E_CANTMOVE_g, align 8, !tbaa !14
  %35 = tail call i32 (ptr, ptr, i32, i64, i64, ptr, ...) @H5E_printf_stack(ptr noundef nonnull @.str.4, ptr noundef nonnull @__func__.H5HF__cache_iblock_pre_serialize, i32 noundef 1191, i64 noundef %33, i64 noundef %34, ptr noundef nonnull @.str.29) #9
  br label %62

36:                                               ; preds = %27
  store i64 %21, ptr %28, align 8, !tbaa !138
  %37 = getelementptr inbounds nuw i8, ptr %1, i64 264
  %38 = load ptr, ptr %37, align 8, !tbaa !119
  %39 = icmp eq ptr %38, null
  br i1 %39, label %40, label %48

40:                                               ; preds = %36
  %41 = getelementptr inbounds nuw i8, ptr %16, i64 296
  store i64 %21, ptr %41, align 8, !tbaa !139
  %42 = tail call i32 @H5HF__hdr_dirty(ptr noundef %16) #9
  %43 = icmp slt i32 %42, 0
  br i1 %43, label %44, label %.thread

44:                                               ; preds = %40
  %45 = load i64, ptr @H5E_HEAP_g, align 8, !tbaa !14
  %46 = load i64, ptr @H5E_CANTDIRTY_g, align 8, !tbaa !14
  %47 = tail call i32 (ptr, ptr, i32, i64, i64, ptr, ...) @H5E_printf_stack(ptr noundef nonnull @.str.4, ptr noundef nonnull @__func__.H5HF__cache_iblock_pre_serialize, i32 noundef 1203, i64 noundef %45, i64 noundef %46, ptr noundef nonnull @.str.30) #9
  br label %62

48:                                               ; preds = %36
  %49 = getelementptr inbounds nuw i8, ptr %1, i64 280
  %50 = load i32, ptr %49, align 8, !tbaa !122
  %51 = getelementptr inbounds nuw i8, ptr %38, i64 344
  %52 = load ptr, ptr %51, align 8, !tbaa !127
  %53 = zext i32 %50 to i64
  %54 = getelementptr inbounds nuw %struct.H5HF_indirect_ent_t, ptr %52, i64 %53
  store i64 %21, ptr %54, align 8, !tbaa !133
  %55 = tail call i32 @H5HF__iblock_dirty(ptr noundef nonnull %38) #9
  %56 = icmp sgt i32 %55, -1
  br i1 %56, label %.thread, label %57

57:                                               ; preds = %48
  %58 = load i64, ptr @H5E_HEAP_g, align 8, !tbaa !14
  %59 = load i64, ptr @H5E_CANTDIRTY_g, align 8, !tbaa !14
  %60 = tail call i32 (ptr, ptr, i32, i64, i64, ptr, ...) @H5E_printf_stack(ptr noundef nonnull @.str.4, ptr noundef nonnull @__func__.H5HF__cache_iblock_pre_serialize, i32 noundef 1218, i64 noundef %58, i64 noundef %59, ptr noundef nonnull @.str.30) #9
  br label %62

.thread:                                          ; preds = %48, %40
  store i64 %21, ptr %4, align 8, !tbaa !14
  store i32 2, ptr %6, align 4, !tbaa !17
  br label %62

61:                                               ; preds = %14
  store i32 0, ptr %6, align 4, !tbaa !17
  br label %62

62:                                               ; preds = %57, %23, %32, %44, %.thread, %7, %61
  %.032 = phi i32 [ 0, %61 ], [ 0, %7 ], [ -1, %23 ], [ -1, %32 ], [ -1, %44 ], [ 0, %.thread ], [ -1, %57 ]
  ret i32 %.032
}